; Function Attrs: mustprogress uwtable
define void @_ZN32pxrInternal_v0_24__pxrReserved__18PcpPrimIndex_Graph3NewERKNS_17PcpLayerStackSiteEb(ptr dead_on_unwind noalias nocapture writable writeonly sret(%"class.pxrInternal_v0_24__pxrReserved__::TfRefPtr.0") align 8 %0, ptr noundef nonnull align 8 dereferenceable(16) %1, i1 noundef zeroext %2) local_unnamed_addr #0 align 2 personality ptr @__gxx_personality_v0 {
  %4 = alloca %"class.pxrInternal_v0_24__pxrReserved__::TfMallocTag::Auto", align 8
  %5 = load atomic i8, ptr @_ZN32pxrInternal_v0_24__pxrReserved__11TfMallocTag14_isInitializedE seq_cst, align 1
  %6 = trunc i8 %5 to i1
  br i1 %6, label %_ZN32pxrInternal_v0_24__pxrReserved__11TfMallocTag5_PushEPKc.exit.i, label %_ZN32pxrInternal_v0_24__pxrReserved__11TfMallocTag5_PushEPKc.exit.thread.i

_ZN32pxrInternal_v0_24__pxrReserved__11TfMallocTag5_PushEPKc.exit.thread.i: ; preds = %3
  store ptr null, ptr %4, align 8
  %7 = getelementptr inbounds nuw i8, ptr %4, i64 8
  store i32 0, ptr %7, align 8
  br label %_ZN32pxrInternal_v0_24__pxrReserved__11TfMallocTag4AutoC2IRA4_KcJRA19_S3_EEEOT_DpOT0_.exit

_ZN32pxrInternal_v0_24__pxrReserved__11TfMallocTag5_PushEPKc.exit.i: ; preds = %3
  %8 = tail call noundef ptr @_ZN32pxrInternal_v0_24__pxrReserved__11TfMallocTag6_BeginEPKcPNS0_11_ThreadDataE(ptr noundef nonnull @.str.5, ptr noundef null)
  store ptr %8, ptr %4, align 8
  %9 = getelementptr inbounds nuw i8, ptr %4, i64 8
  %.not.i = icmp eq ptr %8, null
  %10 = select i1 %.not.i, i32 0, i32 2
  store i32 %10, ptr %9, align 8
  br i1 %.not.i, label %_ZN32pxrInternal_v0_24__pxrReserved__11TfMallocTag4AutoC2IRA4_KcJRA19_S3_EEEOT_DpOT0_.exit, label %11

11:                                               ; preds = %_ZN32pxrInternal_v0_24__pxrReserved__11TfMallocTag5_PushEPKc.exit.i
  %12 = tail call noundef ptr @_ZN32pxrInternal_v0_24__pxrReserved__11TfMallocTag6_BeginEPKcPNS0_11_ThreadDataE(ptr noundef nonnull @.str.6, ptr noundef nonnull %8)
  br label %_ZN32pxrInternal_v0_24__pxrReserved__11TfMallocTag4AutoC2IRA4_KcJRA19_S3_EEEOT_DpOT0_.exit

_ZN32pxrInternal_v0_24__pxrReserved__11TfMallocTag4AutoC2IRA4_KcJRA19_S3_EEEOT_DpOT0_.exit: ; preds = %_ZN32pxrInternal_v0_24__pxrReserved__11TfMallocTag5_PushEPKc.exit.thread.i, %_ZN32pxrInternal_v0_24__pxrReserved__11TfMallocTag5_PushEPKc.exit.i, %11
  %13 = phi i32 [ 0, %_ZN32pxrInternal_v0_24__pxrReserved__11TfMallocTag5_PushEPKc.exit.thread.i ], [ 0, %_ZN32pxrInternal_v0_24__pxrReserved__11TfMallocTag5_PushEPKc.exit.i ], [ 2, %11 ]
  %14 = phi ptr [ null, %_ZN32pxrInternal_v0_24__pxrReserved__11TfMallocTag5_PushEPKc.exit.thread.i ], [ null, %_ZN32pxrInternal_v0_24__pxrReserved__11TfMallocTag5_PushEPKc.exit.i ], [ %8, %11 ]
  %15 = invoke noalias noundef nonnull dereferenceable(64) ptr @_Znwm(i64 noundef 64) #22
          to label %16 unwind label %22

16:                                               ; preds = %_ZN32pxrInternal_v0_24__pxrReserved__11TfMallocTag4AutoC2IRA4_KcJRA19_S3_EEEOT_DpOT0_.exit
  invoke void @_ZN32pxrInternal_v0_24__pxrReserved__18PcpPrimIndex_GraphC1ERKNS_17PcpLayerStackSiteEb(ptr noundef nonnull align 8 dereferenceable(57) %15, ptr noundef nonnull align 8 dereferenceable(16) %1, i1 noundef zeroext %2)
          to label %17 unwind label %24

17:                                               ; preds = %16
  store ptr %15, ptr %0, align 8, !alias.scope !4
  %.not.i.i = icmp eq ptr %14, null
  br i1 %.not.i.i, label %_ZN32pxrInternal_v0_24__pxrReserved__11TfMallocTag4AutoD2Ev.exit, label %18

18:                                               ; preds = %17
  invoke void @_ZN32pxrInternal_v0_24__pxrReserved__11TfMallocTag4_EndEiPNS0_11_ThreadDataE(i32 noundef %13, ptr noundef nonnull %14)
          to label %_ZN32pxrInternal_v0_24__pxrReserved__11TfMallocTag4AutoD2Ev.exit unwind label %19

19:                                               ; preds = %18
  %20 = landingpad { ptr, i32 }
          catch ptr null
  %21 = extractvalue { ptr, i32 } %20, 0
  tail call void @__clang_call_terminate(ptr %21) #23
  unreachable

_ZN32pxrInternal_v0_24__pxrReserved__11TfMallocTag4AutoD2Ev.exit: ; preds = %18, %17
  ret void

22:                                               ; preds = %_ZN32pxrInternal_v0_24__pxrReserved__11TfMallocTag4AutoC2IRA4_KcJRA19_S3_EEEOT_DpOT0_.exit
  %23 = landingpad { ptr, i32 }
          cleanup
  br label %26

24:                                               ; preds = %16
  %25 = landingpad { ptr, i32 }
          cleanup
  tail call void @_ZdlPvm(ptr noundef nonnull %15, i64 noundef 64) #24
  br label %26

26:                                               ; preds = %24, %22
  %.pn = phi { ptr, i32 } [ %23, %22 ], [ %25, %24 ]
  call void @_ZN32pxrInternal_v0_24__pxrReserved__11TfMallocTag4AutoD2Ev(ptr noundef nonnull align 8 dereferenceable(12) %4) #21
  resume { ptr, i32 } %.pn
}